; Function Attrs: mustprogress uwtable
define noundef zeroext i1 @_ZN5folly14EventBaseEvent16setEdgeTriggeredEv(ptr noundef nonnull align 8 dereferenceable(168) %0) local_unnamed_addr #0 align 2 {
  %2 = getelementptr inbounds nuw i8, ptr %0, i64 128
  %3 = load ptr, ptr %2, align 8, !tbaa !7
  %.not.i = icmp eq ptr %3, null
  br i1 %.not.i, label %_ZNK5folly14EventBaseEvent10getBackendEv.exit.thread, label %_ZNK5folly14EventBaseEvent10getBackendEv.exit

_ZNK5folly14EventBaseEvent10getBackendEv.exit:    ; preds = %1
  %4 = getelementptr inbounds nuw i8, ptr %3, i64 616
  %5 = load ptr, ptr %4, align 8, !tbaa !26
  %.not.not = icmp eq ptr %5, null
  br i1 %.not.not, label %_ZNK5folly14EventBaseEvent10getBackendEv.exit.thread, label %6

6:                                                ; preds = %_ZNK5folly14EventBaseEvent10getBackendEv.exit
  %7 = load ptr, ptr %5, align 8, !tbaa !28
  %8 = getelementptr inbounds nuw i8, ptr %7, i64 80
  %9 = load ptr, ptr %8, align 8
  %10 = tail call noundef zeroext i1 %9(ptr noundef nonnull align 8 dereferenceable(8) %5, ptr noundef nonnull align 8 dereferenceable(168) %0)
  br label %_ZNK5folly14EventBaseEvent10getBackendEv.exit.thread

_ZNK5folly14EventBaseEvent10getBackendEv.exit.thread: ; preds = %1, %_ZNK5folly14EventBaseEvent10getBackendEv.exit, %6
  %11 = phi i1 [ %10, %6 ], [ false, %_ZNK5folly14EventBaseEvent10getBackendEv.exit ], [ false, %1 ]
  ret i1 %11
}